target datalayout = "e-m:e-p270:32:32-p271:32:32-p272:64:64-i64:64-i128:128-f80:128-n8:16:32:64-S128"
target triple = "x86_64-pc-linux-gnu"

%struct.SurfaceDataRasInfo = type { %struct.SurfaceDataBounds, ptr, i32, i32, i32, i32, ptr, ptr, ptr, ptr, ptr, ptr, i32, %union.anon.0 }
%struct.SurfaceDataBounds = type { i32, i32, i32, i32 }
%union.anon.0 = type { ptr, [56 x i8] }
%struct._CompositeInfo = type { i32, %union.anon.1, i32 }
%union.anon.1 = type { float }

; Function Attrs: nounwind uwtable
define hidden void @IntArgbToIndex8GrayXorBlit(ptr noundef %0, ptr noundef %1, i32 noundef %2, i32 noundef %3, ptr noundef %4, ptr noundef %5, ptr noundef %6, ptr noundef %7) #0 {
  %9 = alloca ptr, align 8
  %10 = alloca ptr, align 8
  %11 = alloca i32, align 4
  %12 = alloca i32, align 4
  %13 = alloca ptr, align 8
  %14 = alloca ptr, align 8
  %15 = alloca ptr, align 8
  %16 = alloca ptr, align 8
  %17 = alloca i32, align 4
  %18 = alloca i32, align 4
  %19 = alloca ptr, align 8
  %20 = alloca ptr, align 8
  %21 = alloca ptr, align 8
  %22 = alloca i32, align 4
  %23 = alloca i32, align 4
  %24 = alloca i32, align 4
  %25 = alloca i32, align 4
  %26 = alloca i32, align 4
  %27 = alloca i32, align 4
  %28 = alloca i32, align 4
  %29 = alloca i32, align 4
  store ptr %0, ptr %9, align 8
  store ptr %1, ptr %10, align 8
  store i32 %2, ptr %11, align 4
  store i32 %3, ptr %12, align 4
  store ptr %4, ptr %13, align 8
  store ptr %5, ptr %14, align 8
  store ptr %6, ptr %15, align 8
  store ptr %7, ptr %16, align 8
  %30 = load ptr, ptr %16, align 8
  %31 = getelementptr inbounds %struct._CompositeInfo, ptr %30, i32 0, i32 1
  %32 = load i32, ptr %31, align 4
  store i32 %32, ptr %17, align 4
  %33 = load ptr, ptr %16, align 8
  %34 = getelementptr inbounds %struct._CompositeInfo, ptr %33, i32 0, i32 2
  %35 = load i32, ptr %34, align 4
  store i32 %35, ptr %18, align 4
  br label %36

36:                                               ; preds = %8
  %37 = load ptr, ptr %9, align 8
  store ptr %37, ptr %20, align 8
  %38 = load ptr, ptr %10, align 8
  store ptr %38, ptr %21, align 8
  %39 = load ptr, ptr %13, align 8
  %40 = getelementptr inbounds %struct.SurfaceDataRasInfo, ptr %39, i32 0, i32 4
  %41 = load i32, ptr %40, align 8
  store i32 %41, ptr %22, align 4
  %42 = load ptr, ptr %14, align 8
  %43 = getelementptr inbounds %struct.SurfaceDataRasInfo, ptr %42, i32 0, i32 4
  %44 = load i32, ptr %43, align 8
  store i32 %44, ptr %23, align 4
  %45 = load ptr, ptr %14, align 8
  %46 = getelementptr inbounds %struct.SurfaceDataRasInfo, ptr %45, i32 0, i32 11
  %47 = load ptr, ptr %46, align 8
  store ptr %47, ptr %19, align 8
  %48 = load i32, ptr %11, align 4
  %49 = mul i32 %48, 4
  %50 = load i32, ptr %22, align 4
  %51 = sub i32 %50, %49
  store i32 %51, ptr %22, align 4
  %52 = load i32, ptr %11, align 4
  %53 = mul i32 %52, 1
  %54 = load i32, ptr %23, align 4
  %55 = sub i32 %54, %53
  store i32 %55, ptr %23, align 4
  br label %56

56:                                               ; preds = %136, %36
  %57 = load i32, ptr %11, align 4
  store i32 %57, ptr %24, align 4
  br label %58

58:                                               ; preds = %119, %56
  br label %59

59:                                               ; preds = %58
  %60 = load ptr, ptr %20, align 8
  %61 = getelementptr inbounds i32, ptr %60, i64 0
  %62 = load i32, ptr %61, align 4
  store i32 %62, ptr %25, align 4
  %63 = load i32, ptr %25, align 4
  %64 = icmp sge i32 %63, 0
  br i1 %64, label %65, label %66

65:                                               ; preds = %59
  br label %110

66:                                               ; preds = %59
  br label %67

67:                                               ; preds = %66
  br label %68

68:                                               ; preds = %67
  %69 = load i32, ptr %25, align 4
  %70 = and i32 %69, 255
  store i32 %70, ptr %28, align 4
  %71 = load i32, ptr %25, align 4
  %72 = ashr i32 %71, 8
  %73 = and i32 %72, 255
  store i32 %73, ptr %27, align 4
  %74 = load i32, ptr %25, align 4
  %75 = ashr i32 %74, 16
  %76 = and i32 %75, 255
  store i32 %76, ptr %26, align 4
  br label %77

77:                                               ; preds = %68
  %78 = load i32, ptr %26, align 4
  %79 = mul nsw i32 77, %78
  %80 = load i32, ptr %27, align 4
  %81 = mul nsw i32 150, %80
  %82 = add nsw i32 %79, %81
  %83 = load i32, ptr %28, align 4
  %84 = mul nsw i32 29, %83
  %85 = add nsw i32 %82, %84
  %86 = add nsw i32 %85, 128
  %87 = sdiv i32 %86, 256
  %88 = trunc i32 %87 to i8
  %89 = zext i8 %88 to i32
  store i32 %89, ptr %29, align 4
  %90 = load ptr, ptr %14, align 8
  %91 = getelementptr inbounds %struct.SurfaceDataRasInfo, ptr %90, i32 0, i32 11
  %92 = load ptr, ptr %91, align 8
  %93 = load i32, ptr %29, align 4
  %94 = sext i32 %93 to i64
  %95 = getelementptr inbounds i32, ptr %92, i64 %94
  %96 = load i32, ptr %95, align 4
  store i32 %96, ptr %25, align 4
  br label %97

97:                                               ; preds = %77
  %98 = load i32, ptr %25, align 4
  %99 = load i32, ptr %17, align 4
  %100 = xor i32 %98, %99
  %101 = load i32, ptr %18, align 4
  %102 = xor i32 %101, -1
  %103 = and i32 %100, %102
  %104 = load ptr, ptr %21, align 8
  %105 = getelementptr inbounds i8, ptr %104, i64 0
  %106 = load i8, ptr %105, align 1
  %107 = zext i8 %106 to i32
  %108 = xor i32 %107, %103
  %109 = trunc i32 %108 to i8
  store i8 %109, ptr %105, align 1
  br label %110

110:                                              ; preds = %97, %65
  %111 = load ptr, ptr %20, align 8
  %112 = ptrtoint ptr %111 to i64
  %113 = add nsw i64 %112, 4
  %114 = inttoptr i64 %113 to ptr
  store ptr %114, ptr %20, align 8
  %115 = load ptr, ptr %21, align 8
  %116 = ptrtoint ptr %115 to i64
  %117 = add nsw i64 %116, 1
  %118 = inttoptr i64 %117 to ptr
  store ptr %118, ptr %21, align 8
  br label %119

119:                                              ; preds = %110
  %120 = load i32, ptr %24, align 4
  %121 = add i32 %120, -1
  store i32 %121, ptr %24, align 4
  %122 = icmp ugt i32 %121, 0
  br i1 %122, label %58, label %123, !llvm.loop !48

123:                                              ; preds = %119
  %124 = load ptr, ptr %20, align 8
  %125 = ptrtoint ptr %124 to i64
  %126 = load i32, ptr %22, align 4
  %127 = sext i32 %126 to i64
  %128 = add nsw i64 %125, %127
  %129 = inttoptr i64 %128 to ptr
  store ptr %129, ptr %20, align 8
  %130 = load ptr, ptr %21, align 8
  %131 = ptrtoint ptr %130 to i64
  %132 = load i32, ptr %23, align 4
  %133 = sext i32 %132 to i64
  %134 = add nsw i64 %131, %133
  %135 = inttoptr i64 %134 to ptr
  store ptr %135, ptr %21, align 8
  br label %136

136:                                              ; preds = %123
  %137 = load i32, ptr %12, align 4
  %138 = add i32 %137, -1
  store i32 %138, ptr %12, align 4
  %139 = icmp ugt i32 %138, 0
  br i1 %139, label %56, label %140, !llvm.loop !49

140:                                              ; preds = %136
  br label %141

141:                                              ; preds = %140
  ret void
}