; Function Attrs: nofree norecurse nosync nounwind memory(readwrite, inaccessiblemem: none) uwtable
define hidden void @IntArgbToIndex8GrayXorBlit(ptr noundef %0, ptr noundef %1, i32 noundef %2, i32 noundef %3, ptr nocapture noundef readonly %4, ptr nocapture noundef readonly %5, ptr nocapture readnone %6, ptr nocapture noundef readonly %7) #0 {
  %9 = getelementptr inbounds i8, ptr %7, i64 4
  %10 = load i32, ptr %9, align 4
  %11 = getelementptr inbounds i8, ptr %7, i64 8
  %12 = load i32, ptr %11, align 4
  %13 = getelementptr inbounds i8, ptr %4, i64 32
  %14 = load i32, ptr %13, align 8
  %15 = getelementptr inbounds i8, ptr %5, i64 32
  %16 = load i32, ptr %15, align 8
  %17 = getelementptr inbounds i8, ptr %5, i64 80
  %18 = shl i32 %2, 2
  %19 = sub i32 %14, %18
  %20 = sub i32 %16, %2
  %21 = sext i32 %19 to i64
  %22 = xor i32 %12, -1
  %23 = sext i32 %20 to i64
  br label %24

24:                                               ; preds = %58, %8
  %.034 = phi ptr [ %1, %8 ], [ %62, %58 ]
  %.033 = phi ptr [ %0, %8 ], [ %60, %58 ]
  %.0 = phi i32 [ %3, %8 ], [ %63, %58 ]
  br label %25

25:                                               ; preds = %50, %24
  %.036 = phi i32 [ %2, %24 ], [ %57, %50 ]
  %.135 = phi ptr [ %.034, %24 ], [ %56, %50 ]
  %.1 = phi ptr [ %.033, %24 ], [ %53, %50 ]
  %26 = load i32, ptr %.1, align 4
  %27 = icmp sgt i32 %26, -1
  br i1 %27, label %50, label %28

28:                                               ; preds = %25
  %29 = and i32 %26, 255
  %30 = lshr i32 %26, 8
  %31 = and i32 %30, 255
  %32 = lshr i32 %26, 16
  %33 = and i32 %32, 255
  %34 = mul nuw nsw i32 %33, 77
  %35 = mul nuw nsw i32 %31, 150
  %36 = mul nuw nsw i32 %29, 29
  %37 = add nuw nsw i32 %36, 128
  %38 = add nuw nsw i32 %37, %35
  %39 = add nuw nsw i32 %38, %34
  %40 = lshr i32 %39, 8
  %41 = load ptr, ptr %17, align 8
  %42 = zext nneg i32 %40 to i64
  %43 = getelementptr inbounds i32, ptr %41, i64 %42
  %44 = load i32, ptr %43, align 4
  %45 = xor i32 %44, %10
  %46 = and i32 %45, %22
  %47 = load i8, ptr %.135, align 1
  %48 = trunc i32 %46 to i8
  %49 = xor i8 %47, %48
  store i8 %49, ptr %.135, align 1
  br label %50

50:                                               ; preds = %25, %28
  %51 = ptrtoint ptr %.1 to i64
  %52 = add nsw i64 %51, 4
  %53 = inttoptr i64 %52 to ptr
  %54 = ptrtoint ptr %.135 to i64
  %55 = add nsw i64 %54, 1
  %56 = inttoptr i64 %55 to ptr
  %57 = add i32 %.036, -1
  %.not = icmp eq i32 %57, 0
  br i1 %.not, label %58, label %25, !llvm.loop !45

58:                                               ; preds = %50
  %59 = add nsw i64 %52, %21
  %60 = inttoptr i64 %59 to ptr
  %61 = add nsw i64 %55, %23
  %62 = inttoptr i64 %61 to ptr
  %63 = add i32 %.0, -1
  %.not40 = icmp eq i32 %63, 0
  br i1 %.not40, label %64, label %24, !llvm.loop !46

64:                                               ; preds = %58
  ret void
}